
key_led_elf:     file format elf32-littlearm

Disassembly of section .text:

00000000 <_start>:
   0:	e3a00453 	mov	r0, #1392508928	; 0x53000000
   4:	e3a01000 	mov	r1, #0	; 0x0
   8:	e5801000 	str	r1, [r0]
   c:	e3a0da01 	mov	sp, #4096	; 0x1000
  10:	eb00001b 	bl	84 <main>

00000014 <halt_loop>:
  14:	eafffffe 	b	14 <halt_loop>

00000018 <delay>:
  18:	e1a0c00d 	mov	ip, sp
  1c:	e92dd800 	stmdb	sp!, {fp, ip, lr, pc}
  20:	e24cb004 	sub	fp, ip, #4	; 0x4
  24:	e24dd008 	sub	sp, sp, #8	; 0x8
  28:	e50b0010 	str	r0, [fp, #-16]
  2c:	e3a03000 	mov	r3, #0	; 0x0
  30:	e50b3014 	str	r3, [fp, #-20]
  34:	e51b3010 	ldr	r3, [fp, #-16]
  38:	e3530000 	cmp	r3, #0	; 0x0
  3c:	0a00000e 	beq	7c <delay+0x64>
  40:	e3a03000 	mov	r3, #0	; 0x0
  44:	e50b3014 	str	r3, [fp, #-20]
  48:	e51b2014 	ldr	r2, [fp, #-20]
  4c:	e3a03ff9 	mov	r3, #996	; 0x3e4
  50:	e2833003 	add	r3, r3, #3	; 0x3
  54:	e1520003 	cmp	r2, r3
  58:	8a000003 	bhi	6c <delay+0x54>
  5c:	e51b3014 	ldr	r3, [fp, #-20]
  60:	e2833001 	add	r3, r3, #1	; 0x1
  64:	e50b3014 	str	r3, [fp, #-20]
  68:	eafffff6 	b	48 <delay+0x30>
  6c:	e51b3010 	ldr	r3, [fp, #-16]
  70:	e2433001 	sub	r3, r3, #1	; 0x1
  74:	e50b3010 	str	r3, [fp, #-16]
  78:	eaffffed 	b	34 <delay+0x1c>
  7c:	e24bd00c 	sub	sp, fp, #12	; 0xc
  80:	e89da800 	ldmia	sp, {fp, sp, pc}

00000084 <main>:
  84:	e1a0c00d 	mov	ip, sp
  88:	e92dd800 	stmdb	sp!, {fp, ip, lr, pc}
  8c:	e24cb004 	sub	fp, ip, #4	; 0x4
  90:	e24dd004 	sub	sp, sp, #4	; 0x4
  94:	e3a02456 	mov	r2, #1442840576	; 0x56000000
  98:	e2822050 	add	r2, r2, #80	; 0x50
  9c:	e3a03456 	mov	r3, #1442840576	; 0x56000000
  a0:	e2833050 	add	r3, r3, #80	; 0x50
  a4:	e5933000 	ldr	r3, [r3]
  a8:	e3c33c3f 	bic	r3, r3, #16128	; 0x3f00
  ac:	e5823000 	str	r3, [r2]
  b0:	e3a02456 	mov	r2, #1442840576	; 0x56000000
  b4:	e2822050 	add	r2, r2, #80	; 0x50
  b8:	e3a03456 	mov	r3, #1442840576	; 0x56000000
  bc:	e2833050 	add	r3, r3, #80	; 0x50
  c0:	e5933000 	ldr	r3, [r3]
  c4:	e3833c15 	orr	r3, r3, #5376	; 0x1500
  c8:	e5823000 	str	r3, [r2]
  cc:	e3a02456 	mov	r2, #1442840576	; 0x56000000
  d0:	e2822050 	add	r2, r2, #80	; 0x50
  d4:	e3a03456 	mov	r3, #1442840576	; 0x56000000
  d8:	e2833050 	add	r3, r3, #80	; 0x50
  dc:	e5933000 	ldr	r3, [r3]
  e0:	e3c33033 	bic	r3, r3, #51	; 0x33
  e4:	e5823000 	str	r3, [r2]
  e8:	e3a02456 	mov	r2, #1442840576	; 0x56000000
  ec:	e2822050 	add	r2, r2, #80	; 0x50
  f0:	e3a03456 	mov	r3, #1442840576	; 0x56000000
  f4:	e2833050 	add	r3, r3, #80	; 0x50
  f8:	e5933000 	ldr	r3, [r3]
  fc:	e5823000 	str	r3, [r2]
 100:	e3a02456 	mov	r2, #1442840576	; 0x56000000
 104:	e2822060 	add	r2, r2, #96	; 0x60
 108:	e3a03456 	mov	r3, #1442840576	; 0x56000000
 10c:	e2833060 	add	r3, r3, #96	; 0x60
 110:	e5933000 	ldr	r3, [r3]
 114:	e3c330c0 	bic	r3, r3, #192	; 0xc0
 118:	e5823000 	str	r3, [r2]
 11c:	e3a02456 	mov	r2, #1442840576	; 0x56000000
 120:	e2822060 	add	r2, r2, #96	; 0x60
 124:	e3a03456 	mov	r3, #1442840576	; 0x56000000
 128:	e2833060 	add	r3, r3, #96	; 0x60
 12c:	e5933000 	ldr	r3, [r3]
 130:	e5823000 	str	r3, [r2]
 134:	e3a03456 	mov	r3, #1442840576	; 0x56000000
 138:	e2833054 	add	r3, r3, #84	; 0x54
 13c:	e5933000 	ldr	r3, [r3]
 140:	e50b3010 	str	r3, [fp, #-16]
 144:	e51b3010 	ldr	r3, [fp, #-16]
 148:	e2033001 	and	r3, r3, #1	; 0x1
 14c:	e3530000 	cmp	r3, #0	; 0x0
 150:	1a00000c 	bne	188 <main+0x104>
 154:	e3a00032 	mov	r0, #50	; 0x32
 158:	ebffffae 	bl	18 <delay>
 15c:	e51b3010 	ldr	r3, [fp, #-16]
 160:	e2033001 	and	r3, r3, #1	; 0x1
 164:	e3530000 	cmp	r3, #0	; 0x0
 168:	1a000006 	bne	188 <main+0x104>
 16c:	e3a02456 	mov	r2, #1442840576	; 0x56000000
 170:	e2822054 	add	r2, r2, #84	; 0x54
 174:	e3a03456 	mov	r3, #1442840576	; 0x56000000
 178:	e2833054 	add	r3, r3, #84	; 0x54
 17c:	e5933000 	ldr	r3, [r3]
 180:	e2233010 	eor	r3, r3, #16	; 0x10
 184:	e5823000 	str	r3, [r2]
 188:	e51b3010 	ldr	r3, [fp, #-16]
 18c:	e2033004 	and	r3, r3, #4	; 0x4
 190:	e3530000 	cmp	r3, #0	; 0x0
 194:	1a00000c 	bne	1cc <main+0x148>
 198:	e3a00032 	mov	r0, #50	; 0x32
 19c:	ebffff9d 	bl	18 <delay>
 1a0:	e51b3010 	ldr	r3, [fp, #-16]
 1a4:	e2033004 	and	r3, r3, #4	; 0x4
 1a8:	e3530000 	cmp	r3, #0	; 0x0
 1ac:	1a000006 	bne	1cc <main+0x148>
 1b0:	e3a02456 	mov	r2, #1442840576	; 0x56000000
 1b4:	e2822054 	add	r2, r2, #84	; 0x54
 1b8:	e3a03456 	mov	r3, #1442840576	; 0x56000000
 1bc:	e2833054 	add	r3, r3, #84	; 0x54
 1c0:	e5933000 	ldr	r3, [r3]
 1c4:	e2233020 	eor	r3, r3, #32	; 0x20
 1c8:	e5823000 	str	r3, [r2]
 1cc:	e3a03456 	mov	r3, #1442840576	; 0x56000000
 1d0:	e2833064 	add	r3, r3, #100	; 0x64
 1d4:	e5933000 	ldr	r3, [r3]
 1d8:	e50b3010 	str	r3, [fp, #-16]
 1dc:	e51b3010 	ldr	r3, [fp, #-16]
 1e0:	e2033008 	and	r3, r3, #8	; 0x8
 1e4:	e3530000 	cmp	r3, #0	; 0x0
 1e8:	1affffd1 	bne	134 <main+0xb0>
 1ec:	e3a00032 	mov	r0, #50	; 0x32
 1f0:	ebffff88 	bl	18 <delay>
 1f4:	e51b3010 	ldr	r3, [fp, #-16]
 1f8:	e2033008 	and	r3, r3, #8	; 0x8
 1fc:	e3530000 	cmp	r3, #0	; 0x0
 200:	1affffcb 	bne	134 <main+0xb0>
 204:	e3a02456 	mov	r2, #1442840576	; 0x56000000
 208:	e2822054 	add	r2, r2, #84	; 0x54
 20c:	e3a03456 	mov	r3, #1442840576	; 0x56000000
 210:	e2833054 	add	r3, r3, #84	; 0x54
 214:	e5933000 	ldr	r3, [r3]
 218:	e2233040 	eor	r3, r3, #64	; 0x40
 21c:	e5823000 	str	r3, [r2]
 220:	eaffffc3 	b	134 <main+0xb0>